target datalayout = "e-m:e-p270:32:32-p271:32:32-p272:64:64-i64:64-i128:128-f80:128-n8:16:32:64-S128"
target triple = "x86_64-pc-linux-gnu"

%struct.AVTextFormatContext = type { ptr, ptr, ptr, ptr, ptr, ptr, i32, i32, [12 x i32], [12 x [100 x i32]], [12 x ptr], [12 x %struct.AVBPrint], i32, i32, i32, i32, i32, ptr, i32, ptr, i32 }
%struct.AVBPrint = type { ptr, i32, i32, i32, [1 x i8], [1000 x i8] }
%struct.JSONContext = type { ptr, i32, i32, ptr, ptr }
%struct.AVTextFormatSection = type { i32, ptr, i32, [12 x i32], ptr, ptr, ptr, ptr, i32, ptr, ptr, ptr, ptr }
%struct.AVTextWriterContext = type { ptr, ptr, ptr, ptr }
%struct.AVTextWriter = type { ptr, i32, ptr, ptr, ptr, ptr, ptr, ptr }

@.str.11 = private unnamed_addr constant [4 x i8] c"%*c\00", align 1
@.str.16 = private unnamed_addr constant [36 x i8] c"Invalid section access at level %d\0A\00", align 1
@.str.20 = private unnamed_addr constant [10 x i8] c"\22%s\22: %ld\00", align 1

; Function Attrs: inlinehint nounwind uwtable
define internal void @writer_put_str(ptr noundef %0, ptr noundef %1) #4 {
  %3 = alloca ptr, align 8
  %4 = alloca ptr, align 8
  store ptr %0, ptr %3, align 8, !tbaa !4
  store ptr %1, ptr %4, align 8, !tbaa !35
  %5 = load ptr, ptr %3, align 8, !tbaa !4
  %6 = getelementptr inbounds nuw %struct.AVTextFormatContext, ptr %5, i32 0, i32 2
  %7 = load ptr, ptr %6, align 8, !tbaa !38
  %8 = getelementptr inbounds nuw %struct.AVTextWriterContext, ptr %7, i32 0, i32 1
  %9 = load ptr, ptr %8, align 8, !tbaa !39
  %10 = getelementptr inbounds nuw %struct.AVTextWriter, ptr %9, i32 0, i32 6
  %11 = load ptr, ptr %10, align 8, !tbaa !42
  %12 = load ptr, ptr %3, align 8, !tbaa !4
  %13 = getelementptr inbounds nuw %struct.AVTextFormatContext, ptr %12, i32 0, i32 2
  %14 = load ptr, ptr %13, align 8, !tbaa !38
  %15 = load ptr, ptr %4, align 8, !tbaa !35
  call void %11(ptr noundef %14, ptr noundef %15)
  ret void
}

; Function Attrs: inlinehint nounwind uwtable
define internal ptr @tf_get_parent_section(ptr noundef %0, i32 noundef %1) #4 {
  %3 = alloca ptr, align 8
  %4 = alloca ptr, align 8
  %5 = alloca i32, align 4
  store ptr %0, ptr %4, align 8, !tbaa !4
  store i32 %1, ptr %5, align 4, !tbaa !27
  %6 = load i32, ptr %5, align 4, !tbaa !27
  %7 = icmp sle i32 %6, 0
  br i1 %7, label %8, label %9

8:                                                ; preds = %2
  store ptr null, ptr %3, align 8
  br label %14

9:                                                ; preds = %2
  %10 = load ptr, ptr %4, align 8, !tbaa !4
  %11 = load i32, ptr %5, align 4, !tbaa !27
  %12 = sub nsw i32 %11, 1
  %13 = call ptr @tf_get_section(ptr noundef %10, i32 noundef %12)
  store ptr %13, ptr %3, align 8
  br label %14

14:                                               ; preds = %9, %8
  %15 = load ptr, ptr %3, align 8
  ret ptr %15
}

; Function Attrs: inlinehint nounwind uwtable
define internal ptr @tf_get_section(ptr noundef %0, i32 noundef %1) #4 {
  %3 = alloca ptr, align 8
  %4 = alloca ptr, align 8
  %5 = alloca i32, align 4
  store ptr %0, ptr %4, align 8, !tbaa !4
  store i32 %1, ptr %5, align 4, !tbaa !27
  %6 = load ptr, ptr %4, align 8, !tbaa !4
  %7 = icmp ne ptr %6, null
  br i1 %7, label %8, label %22

8:                                                ; preds = %2
  %9 = load i32, ptr %5, align 4, !tbaa !27
  %10 = icmp slt i32 %9, 0
  br i1 %10, label %22, label %11

11:                                               ; preds = %8
  %12 = load i32, ptr %5, align 4, !tbaa !27
  %13 = icmp sge i32 %12, 12
  br i1 %13, label %22, label %14

14:                                               ; preds = %11
  %15 = load ptr, ptr %4, align 8, !tbaa !4
  %16 = getelementptr inbounds nuw %struct.AVTextFormatContext, ptr %15, i32 0, i32 10
  %17 = load i32, ptr %5, align 4, !tbaa !27
  %18 = sext i32 %17 to i64
  %19 = getelementptr inbounds [12 x ptr], ptr %16, i64 0, i64 %18
  %20 = load ptr, ptr %19, align 8, !tbaa !26
  %21 = icmp ne ptr %20, null
  br i1 %21, label %29, label %22

22:                                               ; preds = %14, %11, %8, %2
  %23 = load ptr, ptr %4, align 8, !tbaa !4
  %24 = icmp ne ptr %23, null
  br i1 %24, label %25, label %28

25:                                               ; preds = %22
  %26 = load ptr, ptr %4, align 8, !tbaa !4
  %27 = load i32, ptr %5, align 4, !tbaa !27
  call void (ptr, i32, ptr, ...) @av_log(ptr noundef %26, i32 noundef 16, ptr noundef @.str.16, i32 noundef %27)
  br label %28

28:                                               ; preds = %25, %22
  store ptr null, ptr %3, align 8
  br label %36

29:                                               ; preds = %14
  %30 = load ptr, ptr %4, align 8, !tbaa !4
  %31 = getelementptr inbounds nuw %struct.AVTextFormatContext, ptr %30, i32 0, i32 10
  %32 = load i32, ptr %5, align 4, !tbaa !27
  %33 = sext i32 %32 to i64
  %34 = getelementptr inbounds [12 x ptr], ptr %31, i64 0, i64 %33
  %35 = load ptr, ptr %34, align 8, !tbaa !26
  store ptr %35, ptr %3, align 8
  br label %36

36:                                               ; preds = %29, %28
  %37 = load ptr, ptr %3, align 8
  ret ptr %37
}

; Function Attrs: nounwind uwtable
define internal void @json_print_int(ptr noundef %0, ptr noundef %1, i64 noundef %2) #1 {
  %4 = alloca ptr, align 8
  %5 = alloca ptr, align 8
  %6 = alloca i64, align 8
  %7 = alloca ptr, align 8
  %8 = alloca ptr, align 8
  %9 = alloca ptr, align 8
  %10 = alloca %struct.AVBPrint, align 8
  %11 = alloca i32, align 4
  store ptr %0, ptr %4, align 8, !tbaa !4
  store ptr %1, ptr %5, align 8, !tbaa !35
  store i64 %2, ptr %6, align 8, !tbaa !36
  call void @llvm.lifetime.start.p0(i64 8, ptr %7) #7
  %12 = load ptr, ptr %4, align 8, !tbaa !4
  %13 = load ptr, ptr %4, align 8, !tbaa !4
  %14 = getelementptr inbounds nuw %struct.AVTextFormatContext, ptr %13, i32 0, i32 7
  %15 = load i32, ptr %14, align 4, !tbaa !25
  %16 = call ptr @tf_get_section(ptr noundef %12, i32 noundef %15)
  store ptr %16, ptr %7, align 8, !tbaa !26
  call void @llvm.lifetime.start.p0(i64 8, ptr %8) #7
  %17 = load ptr, ptr %4, align 8, !tbaa !4
  %18 = load ptr, ptr %4, align 8, !tbaa !4
  %19 = getelementptr inbounds nuw %struct.AVTextFormatContext, ptr %18, i32 0, i32 7
  %20 = load i32, ptr %19, align 4, !tbaa !25
  %21 = call ptr @tf_get_parent_section(ptr noundef %17, i32 noundef %20)
  store ptr %21, ptr %8, align 8, !tbaa !26
  call void @llvm.lifetime.start.p0(i64 8, ptr %9) #7
  %22 = load ptr, ptr %4, align 8, !tbaa !4
  %23 = getelementptr inbounds nuw %struct.AVTextFormatContext, ptr %22, i32 0, i32 4
  %24 = load ptr, ptr %23, align 8, !tbaa !9
  store ptr %24, ptr %9, align 8, !tbaa !18
  call void @llvm.lifetime.start.p0(i64 1024, ptr %10) #7
  %25 = load ptr, ptr %7, align 8, !tbaa !26
  %26 = icmp ne ptr %25, null
  br i1 %26, label %28, label %27

27:                                               ; preds = %3
  store i32 1, ptr %11, align 4
  br label %70

28:                                               ; preds = %3
  %29 = load ptr, ptr %4, align 8, !tbaa !4
  %30 = getelementptr inbounds nuw %struct.AVTextFormatContext, ptr %29, i32 0, i32 8
  %31 = load ptr, ptr %4, align 8, !tbaa !4
  %32 = getelementptr inbounds nuw %struct.AVTextFormatContext, ptr %31, i32 0, i32 7
  %33 = load i32, ptr %32, align 4, !tbaa !25
  %34 = sext i32 %33 to i64
  %35 = getelementptr inbounds [12 x i32], ptr %30, i64 0, i64 %34
  %36 = load i32, ptr %35, align 4, !tbaa !27
  %37 = icmp ne i32 %36, 0
  br i1 %37, label %47, label %38

38:                                               ; preds = %28
  %39 = load ptr, ptr %8, align 8, !tbaa !26
  %40 = icmp ne ptr %39, null
  br i1 %40, label %41, label %52

41:                                               ; preds = %38
  %42 = load ptr, ptr %8, align 8, !tbaa !26
  %43 = getelementptr inbounds nuw %struct.AVTextFormatSection, ptr %42, i32 0, i32 2
  %44 = load i32, ptr %43, align 8, !tbaa !28
  %45 = and i32 %44, 16
  %46 = icmp ne i32 %45, 0
  br i1 %46, label %47, label %52

47:                                               ; preds = %41, %28
  %48 = load ptr, ptr %4, align 8, !tbaa !4
  %49 = load ptr, ptr %9, align 8, !tbaa !18
  %50 = getelementptr inbounds nuw %struct.JSONContext, ptr %49, i32 0, i32 3
  %51 = load ptr, ptr %50, align 8, !tbaa !22
  call void @writer_put_str(ptr noundef %48, ptr noundef %51)
  br label %52

52:                                               ; preds = %47, %41, %38
  %53 = load ptr, ptr %9, align 8, !tbaa !18
  %54 = getelementptr inbounds nuw %struct.JSONContext, ptr %53, i32 0, i32 2
  %55 = load i32, ptr %54, align 4, !tbaa !20
  %56 = icmp ne i32 %55, 0
  br i1 %56, label %63, label %57

57:                                               ; preds = %52
  %58 = load ptr, ptr %4, align 8, !tbaa !4
  %59 = load ptr, ptr %9, align 8, !tbaa !18
  %60 = getelementptr inbounds nuw %struct.JSONContext, ptr %59, i32 0, i32 1
  %61 = load i32, ptr %60, align 8, !tbaa !31
  %62 = mul nsw i32 %61, 4
  call void (ptr, ptr, ...) @writer_printf(ptr noundef %58, ptr noundef @.str.11, i32 noundef %62, i32 noundef 32)
  br label %63

63:                                               ; preds = %57, %52
  call void @av_bprint_init(ptr noundef %10, i32 noundef 1, i32 noundef -1)
  %64 = load ptr, ptr %4, align 8, !tbaa !4
  %65 = load ptr, ptr %5, align 8, !tbaa !35
  %66 = load ptr, ptr %4, align 8, !tbaa !4
  %67 = call ptr @json_escape_str(ptr noundef %10, ptr noundef %65, ptr noundef %66)
  %68 = load i64, ptr %6, align 8, !tbaa !36
  call void (ptr, ptr, ...) @writer_printf(ptr noundef %64, ptr noundef @.str.20, ptr noundef %67, i64 noundef %68)
  %69 = call i32 @av_bprint_finalize(ptr noundef %10, ptr noundef null)
  store i32 0, ptr %11, align 4
  br label %70

70:                                               ; preds = %63, %27
  call void @llvm.lifetime.end.p0(i64 1024, ptr %10) #7
  call void @llvm.lifetime.end.p0(i64 8, ptr %9) #7
  call void @llvm.lifetime.end.p0(i64 8, ptr %8) #7
  call void @llvm.lifetime.end.p0(i64 8, ptr %7) #7
  %71 = load i32, ptr %11, align 4
  switch i32 %71, label %73 [
    i32 0, label %72
    i32 1, label %72
  ]

72:                                               ; preds = %70, %70
  ret void

73:                                               ; preds = %70
  unreachable
}